; Function Attrs: mustprogress uwtable
define void @_ZN32pxrInternal_v0_24__pxrReserved__28UsdImagingCoordSysAPIAdapter24InvalidateImagingSubprimERKNS_7UsdPrimERKNS_7TfTokenES6_RKSt6vectorIS4_SaIS4_EENS_34UsdImagingPropertyInvalidationTypeE(ptr dead_on_unwind noalias writable sret(%"class.pxrInternal_v0_24__pxrReserved__::HdDataSourceLocatorSet") align 8 %0, ptr nocapture nonnull readnone align 8 %1, ptr nocapture nonnull readnone align 8 %2, ptr nocapture noundef nonnull readonly align 8 dereferenceable(8) %3, ptr nocapture noundef nonnull readonly align 8 dereferenceable(8) %4, ptr nocapture noundef nonnull readonly align 8 dereferenceable(24) %5, i32 %6) unnamed_addr #0 align 2 {
  %8 = load ptr, ptr %4, align 8
  %9 = icmp eq ptr %8, null
  br i1 %9, label %10, label %13

10:                                               ; preds = %7
  %11 = getelementptr inbounds nuw i8, ptr %0, i64 448
  store i32 0, ptr %11, align 8
  %12 = getelementptr inbounds nuw i8, ptr %0, i64 452
  store i32 8, ptr %12, align 4
  br label %27

13:                                               ; preds = %7
  %14 = load ptr, ptr %3, align 8
  %15 = icmp eq ptr %14, null
  br i1 %15, label %16, label %.loopexit

16:                                               ; preds = %13
  %17 = load ptr, ptr %5, align 8
  %18 = getelementptr inbounds nuw i8, ptr %5, i64 8
  %19 = load ptr, ptr %18, align 8
  %.not9 = icmp eq ptr %17, %19
  br i1 %.not9, label %.loopexit, label %.lr.ph

20:                                               ; preds = %.lr.ph
  %21 = getelementptr inbounds i8, ptr %.sroa.06.010, i64 8
  %.not = icmp eq ptr %21, %19
  br i1 %.not, label %.loopexit, label %.lr.ph

.lr.ph:                                           ; preds = %16, %20
  %.sroa.06.010 = phi ptr [ %21, %20 ], [ %17, %16 ]
  %22 = tail call noundef zeroext i1 @_ZN32pxrInternal_v0_24__pxrReserved__19UsdShadeCoordSysAPI22CanContainPropertyNameERKNS_7TfTokenE(ptr noundef nonnull align 8 dereferenceable(8) %.sroa.06.010)
  br i1 %22, label %23, label %20

23:                                               ; preds = %.lr.ph
  %24 = tail call noundef nonnull align 8 dereferenceable(56) ptr @_ZN32pxrInternal_v0_24__pxrReserved__23HdCoordSysBindingSchema17GetDefaultLocatorEv()
  tail call void @_ZN32pxrInternal_v0_24__pxrReserved__22HdDataSourceLocatorSetC1ERKNS_19HdDataSourceLocatorE(ptr noundef nonnull align 8 dereferenceable(456) %0, ptr noundef nonnull align 8 dereferenceable(56) %24)
  br label %27

.loopexit:                                        ; preds = %20, %16, %13
  %25 = getelementptr inbounds nuw i8, ptr %0, i64 448
  store i32 0, ptr %25, align 8
  %26 = getelementptr inbounds nuw i8, ptr %0, i64 452
  store i32 8, ptr %26, align 4
  br label %27

27:                                               ; preds = %.loopexit, %23, %10
  ret void
}